target datalayout = "e-m:e-p270:32:32-p271:32:32-p272:64:64-i64:64-i128:128-f80:128-n8:16:32:64-S128"
target triple = "x86_64-unknown-linux-gnu"

%"class.datalog::table_base.base" = type { %"class.datalog::tr_infrastructure<datalog::table_traits>::base_ancestor.base" }
%"class.datalog::tr_infrastructure<datalog::table_traits>::base_ancestor.base" = type <{ ptr, ptr, %"class.datalog::table_signature", i32 }>
%"class.datalog::table_signature" = type <{ %"class.datalog::tr_infrastructure<datalog::table_traits>::signature_base", i32, [4 x i8] }>
%"class.datalog::tr_infrastructure<datalog::table_traits>::signature_base" = type { %class.svector }
%class.svector = type { %class.vector }
%class.vector = type { ptr }
%class.svector.0 = type { %class.vector.1 }
%class.vector.1 = type { ptr }
%"class.datalog::bitvector_table" = type { %"class.datalog::table_base.base", %class.bit_vector, i32, %class.svector.0, %class.svector.0 }
%class.bit_vector = type { i32, i32, ptr }

; Function Attrs: mustprogress nounwind uwtable
define linkonce_odr hidden noundef nonnull align 4 dereferenceable(4) ptr @_ZNK6vectorIjLb0EjEixEj(ptr noundef nonnull align 8 dereferenceable(8) %this, i32 noundef %idx) #5 comdat align 2 {
entry:
  %this.addr = alloca ptr, align 8
  %idx.addr = alloca i32, align 4
  store ptr %this, ptr %this.addr, align 8
  store i32 %idx, ptr %idx.addr, align 4
  %this1 = load ptr, ptr %this.addr, align 8
  %m_data = getelementptr inbounds %class.vector.1, ptr %this1, i32 0, i32 0
  %0 = load ptr, ptr %m_data, align 8
  %1 = load i32, ptr %idx.addr, align 4
  %idxprom = zext i32 %1 to i64
  %arrayidx = getelementptr inbounds i32, ptr %0, i64 %idxprom
  ret ptr %arrayidx
}

; Function Attrs: mustprogress uwtable
define hidden noundef i32 @_ZNK7datalog15bitvector_table11fact2offsetEPKm(ptr noundef nonnull align 8 dereferenceable(80) %this, ptr noundef %f) #4 align 2 {
entry:
  %this.addr = alloca ptr, align 8
  %f.addr = alloca ptr, align 8
  %result = alloca i32, align 4
  %i = alloca i32, align 4
  store ptr %this, ptr %this.addr, align 8
  store ptr %f, ptr %f.addr, align 8
  %this1 = load ptr, ptr %this.addr, align 8
  store i32 0, ptr %result, align 4
  store i32 0, ptr %i, align 4
  br label %for.cond

for.cond:                                         ; preds = %for.inc, %entry
  %0 = load i32, ptr %i, align 4
  %m_num_cols = getelementptr inbounds %"class.datalog::bitvector_table", ptr %this1, i32 0, i32 2
  %1 = load i32, ptr %m_num_cols, align 8
  %cmp = icmp ult i32 %0, %1
  br i1 %cmp, label %for.body, label %for.end

for.body:                                         ; preds = %for.cond
  %2 = load ptr, ptr %f.addr, align 8
  %3 = load i32, ptr %i, align 4
  %idxprom = zext i32 %3 to i64
  %arrayidx = getelementptr inbounds i64, ptr %2, i64 %idxprom
  %4 = load i64, ptr %arrayidx, align 8
  %conv = trunc i64 %4 to i32
  %m_shift = getelementptr inbounds %"class.datalog::bitvector_table", ptr %this1, i32 0, i32 3
  %5 = load i32, ptr %i, align 4
  %call = call noundef nonnull align 4 dereferenceable(4) ptr @_ZNK6vectorIjLb0EjEixEj(ptr noundef nonnull align 8 dereferenceable(8) %m_shift, i32 noundef %5)
  %6 = load i32, ptr %call, align 4
  %shl = shl i32 %conv, %6
  %7 = load i32, ptr %result, align 4
  %add = add i32 %7, %shl
  store i32 %add, ptr %result, align 4
  br label %for.inc

for.inc:                                          ; preds = %for.body
  %8 = load i32, ptr %i, align 4
  %inc = add i32 %8, 1
  store i32 %inc, ptr %i, align 4
  br label %for.cond, !llvm.loop !9

for.end:                                          ; preds = %for.cond
  %9 = load i32, ptr %result, align 4
  ret i32 %9
}