; Function Attrs: mustprogress nofree norecurse nosync nounwind willreturn memory(read, inaccessiblemem: none) uwtable
define hidden noundef i32 @_ZNK7datalog15bitvector_table11fact2offsetEPKm(ptr nocapture noundef nonnull readonly align 8 dereferenceable(80) %this, ptr nocapture noundef readonly %f) local_unnamed_addr #4 align 2 {
entry:
  %m_num_cols = getelementptr inbounds i8, ptr %this, i64 56
  %0 = load i32, ptr %m_num_cols, align 8
  %cmp5.not = icmp eq i32 %0, 0
  br i1 %cmp5.not, label %for.end, label %for.body.lr.ph

for.body.lr.ph:                                   ; preds = %entry
  %m_shift = getelementptr inbounds i8, ptr %this, i64 64
  %1 = load ptr, ptr %m_shift, align 8
  %wide.trip.count = zext i32 %0 to i64
  br label %for.body

for.body:                                         ; preds = %for.body.lr.ph, %for.body
  %indvars.iv = phi i64 [ 0, %for.body.lr.ph ], [ %indvars.iv.next, %for.body ]
  %result.06 = phi i32 [ 0, %for.body.lr.ph ], [ %add, %for.body ]
  %arrayidx = getelementptr inbounds i64, ptr %f, i64 %indvars.iv
  %2 = load i64, ptr %arrayidx, align 8
  %conv = trunc i64 %2 to i32
  %arrayidx.i = getelementptr inbounds i32, ptr %1, i64 %indvars.iv
  %3 = load i32, ptr %arrayidx.i, align 4
  %shl = shl i32 %conv, %3
  %add = add i32 %shl, %result.06
  %indvars.iv.next = add nuw nsw i64 %indvars.iv, 1
  %exitcond.not = icmp eq i64 %indvars.iv.next, %wide.trip.count
  br i1 %exitcond.not, label %for.end, label %for.body, !llvm.loop !17

for.end:                                          ; preds = %for.body, %entry
  %result.0.lcssa = phi i32 [ 0, %entry ], [ %add, %for.body ]
  ret i32 %result.0.lcssa
}